target datalayout = "e-m:e-p270:32:32-p271:32:32-p272:64:64-i64:64-i128:128-f80:128-n8:16:32:64-S128"
target triple = "x86_64-pc-linux-gnu"

%struct.slurm_preempt_ops = type { ptr, ptr, ptr }
%struct.job_record = type { i32, ptr, ptr, ptr, ptr, i16, i32, i32, i32, ptr, i32, ptr, ptr, i16, ptr, double, i64, ptr, ptr, ptr, ptr, ptr, ptr, i32, ptr, i32, i64, i64, i32, i32, ptr, i16, i64, i64, i8, i32, ptr, ptr, ptr, ptr, ptr, ptr, ptr, ptr, i32, ptr, ptr, i32, ptr, i32, ptr, i32, ptr, i32, ptr, ptr, ptr, ptr, ptr, ptr, i32, i16, i64, ptr, ptr, ptr, ptr, %struct.acct_policy_limit_set_t, i16, ptr, ptr, ptr, ptr, ptr, i32, ptr, ptr, ptr, ptr, ptr, i32, i32, ptr, ptr, ptr, i16, ptr, ptr, i8, ptr, ptr, i64, i64, i8, i32, i32, i8, i32, ptr, i32, i64, i32, ptr, ptr, ptr, i8, i16, i64, i32, ptr, ptr, ptr, ptr, ptr, i16, i32, ptr, ptr, ptr, ptr, i32, ptr, i32, i16, i64, ptr, i32, i32, ptr, i64, ptr, ptr, i64, i32, i32, i64, i32, i32, ptr, ptr, ptr, ptr, ptr, ptr, ptr, ptr, ptr, ptr, ptr, ptr, i32, ptr, i16, i16, i16, i16, ptr, i32, i32, i8, i64 }
%struct.acct_policy_limit_set_t = type { i16, i16, ptr }

@plugin_inited = internal global i32 0, align 4
@ops = internal global %struct.slurm_preempt_ops zeroinitializer, align 8
@preempt_send_user_signal = external global i8, align 1
@.str.18 = private unnamed_addr constant [74 x i8] c"setting %u sec preemption grace time for %pJ to reclaim resources for %pJ\00", align 1

; Function Attrs: nounwind uwtable
define dso_local i32 @slurm_job_get_grace_time(ptr noundef %0) #0 {
  %2 = alloca i32, align 4
  %3 = alloca ptr, align 8
  %4 = alloca i32, align 4
  %5 = alloca i32, align 4
  store ptr %0, ptr %3, align 8
  call void @llvm.lifetime.start.p0(i64 4, ptr %4) #6
  store i32 0, ptr %4, align 4
  %6 = load i32, ptr @plugin_inited, align 4
  %7 = icmp eq i32 %6, 1
  br i1 %7, label %8, label %9

8:                                                ; preds = %1
  store i32 0, ptr %2, align 4
  store i32 1, ptr %5, align 4
  br label %18

9:                                                ; preds = %1
  %10 = load ptr, ptr getelementptr inbounds nuw (%struct.slurm_preempt_ops, ptr @ops, i32 0, i32 2), align 8
  %11 = load ptr, ptr %3, align 8
  %12 = call i32 %10(ptr noundef %11, i32 noundef 3, ptr noundef %4)
  %13 = icmp ne i32 %12, 0
  br i1 %13, label %14, label %16

14:                                               ; preds = %9
  %15 = load i32, ptr %4, align 4
  store i32 %15, ptr %2, align 4
  store i32 1, ptr %5, align 4
  br label %18

16:                                               ; preds = %9
  %17 = load i32, ptr %4, align 4
  store i32 %17, ptr %2, align 4
  store i32 1, ptr %5, align 4
  br label %18

18:                                               ; preds = %16, %14, %8
  call void @llvm.lifetime.end.p0(i64 4, ptr %4) #6
  %19 = load i32, ptr %2, align 4
  ret i32 %19
}

; Function Attrs: nounwind uwtable
define internal i32 @_job_check_grace_internal(ptr noundef %0, ptr noundef %1) #0 {
  %3 = alloca i32, align 4
  %4 = alloca ptr, align 8
  %5 = alloca ptr, align 8
  %6 = alloca ptr, align 8
  %7 = alloca ptr, align 8
  %8 = alloca i32, align 4
  %9 = alloca i32, align 4
  %10 = alloca i32, align 4
  store ptr %0, ptr %4, align 8
  store ptr %1, ptr %5, align 8
  call void @llvm.lifetime.start.p0(i64 8, ptr %6) #6
  %11 = load ptr, ptr %4, align 8
  store ptr %11, ptr %6, align 8
  call void @llvm.lifetime.start.p0(i64 8, ptr %7) #6
  %12 = load ptr, ptr %5, align 8
  store ptr %12, ptr %7, align 8
  call void @llvm.lifetime.start.p0(i64 4, ptr %8) #6
  store i32 -1, ptr %8, align 4
  call void @llvm.lifetime.start.p0(i64 4, ptr %9) #6
  store i32 0, ptr %9, align 4
  %13 = load ptr, ptr %6, align 8
  %14 = getelementptr inbounds nuw %struct.job_record, ptr %13, i32 0, i32 92
  %15 = load i64, ptr %14, align 8
  %16 = icmp ne i64 %15, 0
  br i1 %16, label %17, label %29

17:                                               ; preds = %2
  %18 = call i64 @time(ptr noundef null) #6
  %19 = load ptr, ptr %6, align 8
  %20 = getelementptr inbounds nuw %struct.job_record, ptr %19, i32 0, i32 32
  %21 = load i64, ptr %20, align 8
  %22 = icmp sge i64 %18, %21
  br i1 %22, label %23, label %27

23:                                               ; preds = %17
  %24 = call i64 @time(ptr noundef null) #6
  %25 = load ptr, ptr %6, align 8
  %26 = getelementptr inbounds nuw %struct.job_record, ptr %25, i32 0, i32 92
  store i64 %24, ptr %26, align 8
  store i32 1, ptr %8, align 4
  br label %27

27:                                               ; preds = %23, %17
  %28 = load i32, ptr %8, align 4
  store i32 %28, ptr %3, align 4
  store i32 1, ptr %10, align 4
  br label %116

29:                                               ; preds = %2
  %30 = load ptr, ptr %6, align 8
  %31 = load ptr, ptr %7, align 8
  %32 = call zeroext i1 @job_borrow_from_resv_check(ptr noundef %30, ptr noundef %31)
  br i1 %32, label %33, label %38

33:                                               ; preds = %29
  %34 = load ptr, ptr %6, align 8
  %35 = getelementptr inbounds nuw %struct.job_record, ptr %34, i32 0, i32 155
  %36 = load i16, ptr %35, align 2
  %37 = zext i16 %36 to i32
  store i32 %37, ptr %9, align 4
  br label %41

38:                                               ; preds = %29
  %39 = load ptr, ptr %6, align 8
  %40 = call i32 @slurm_job_get_grace_time(ptr noundef %39)
  store i32 %40, ptr %9, align 4
  br label %41

41:                                               ; preds = %38, %33
  %42 = call i64 @time(ptr noundef null) #6
  %43 = load ptr, ptr %6, align 8
  %44 = getelementptr inbounds nuw %struct.job_record, ptr %43, i32 0, i32 92
  store i64 %42, ptr %44, align 8
  %45 = load ptr, ptr %6, align 8
  %46 = getelementptr inbounds nuw %struct.job_record, ptr %45, i32 0, i32 32
  %47 = load i64, ptr %46, align 8
  %48 = load ptr, ptr %6, align 8
  %49 = getelementptr inbounds nuw %struct.job_record, ptr %48, i32 0, i32 92
  %50 = load i64, ptr %49, align 8
  %51 = load i32, ptr %9, align 4
  %52 = zext i32 %51 to i64
  %53 = add nsw i64 %50, %52
  %54 = icmp slt i64 %47, %53
  br i1 %54, label %55, label %59

55:                                               ; preds = %41
  %56 = load ptr, ptr %6, align 8
  %57 = getelementptr inbounds nuw %struct.job_record, ptr %56, i32 0, i32 32
  %58 = load i64, ptr %57, align 8
  br label %66

59:                                               ; preds = %41
  %60 = load ptr, ptr %6, align 8
  %61 = getelementptr inbounds nuw %struct.job_record, ptr %60, i32 0, i32 92
  %62 = load i64, ptr %61, align 8
  %63 = load i32, ptr %9, align 4
  %64 = zext i32 %63 to i64
  %65 = add nsw i64 %62, %64
  br label %66

66:                                               ; preds = %59, %55
  %67 = phi i64 [ %58, %55 ], [ %65, %59 ]
  %68 = load ptr, ptr %6, align 8
  %69 = getelementptr inbounds nuw %struct.job_record, ptr %68, i32 0, i32 32
  store i64 %67, ptr %69, align 8
  %70 = load i32, ptr %9, align 4
  %71 = icmp ne i32 %70, 0
  br i1 %71, label %72, label %113

72:                                               ; preds = %66
  br label %73

73:                                               ; preds = %72
  br label %74

74:                                               ; preds = %73
  %75 = call i32 @get_log_level()
  %76 = icmp sge i32 %75, 5
  br i1 %76, label %77, label %81

77:                                               ; preds = %74
  %78 = load i32, ptr %9, align 4
  %79 = load ptr, ptr %6, align 8
  %80 = load ptr, ptr %7, align 8
  call void (i32, ptr, ...) @log_var(i32 noundef 5, ptr noundef @.str.18, i32 noundef %78, ptr noundef %79, ptr noundef %80)
  br label %81

81:                                               ; preds = %77, %74
  br label %82

82:                                               ; preds = %81
  br label %83

83:                                               ; preds = %82
  br label %84

84:                                               ; preds = %83
  br label %85

85:                                               ; preds = %84
  %86 = load i8, ptr @preempt_send_user_signal, align 1, !range !8, !noundef !9
  %87 = trunc i8 %86 to i1
  br i1 %87, label %88, label %103

88:                                               ; preds = %85
  %89 = load ptr, ptr %6, align 8
  %90 = getelementptr inbounds nuw %struct.job_record, ptr %89, i32 0, i32 154
  %91 = load i16, ptr %90, align 4
  %92 = zext i16 %91 to i32
  %93 = icmp ne i32 %92, 0
  br i1 %93, label %94, label %103

94:                                               ; preds = %88
  %95 = load ptr, ptr %6, align 8
  %96 = getelementptr inbounds nuw %struct.job_record, ptr %95, i32 0, i32 153
  %97 = load i16, ptr %96, align 2
  %98 = zext i16 %97 to i64
  %99 = and i64 %98, 32768
  %100 = icmp ne i64 %99, 0
  br i1 %100, label %103, label %101

101:                                              ; preds = %94
  %102 = load ptr, ptr %6, align 8
  call void @send_job_warn_signal(ptr noundef %102, i1 noundef zeroext true)
  br label %108

103:                                              ; preds = %94, %88, %85
  %104 = load ptr, ptr %6, align 8
  %105 = call i32 @job_signal(ptr noundef %104, i16 noundef zeroext 18, i16 noundef zeroext 0, i32 noundef 0, i1 noundef zeroext false)
  %106 = load ptr, ptr %6, align 8
  %107 = call i32 @job_signal(ptr noundef %106, i16 noundef zeroext 15, i16 noundef zeroext 0, i32 noundef 0, i1 noundef zeroext false)
  br label %108

108:                                              ; preds = %103, %101
  %109 = load ptr, ptr %6, align 8
  %110 = getelementptr inbounds nuw %struct.job_record, ptr %109, i32 0, i32 16
  %111 = load i64, ptr %110, align 8
  %112 = or i64 %111, 128
  store i64 %112, ptr %110, align 8
  br label %114

113:                                              ; preds = %66
  store i32 1, ptr %8, align 4
  br label %114

114:                                              ; preds = %113, %108
  %115 = load i32, ptr %8, align 4
  store i32 %115, ptr %3, align 4
  store i32 1, ptr %10, align 4
  br label %116

116:                                              ; preds = %114, %27
  call void @llvm.lifetime.end.p0(i64 4, ptr %9) #6
  call void @llvm.lifetime.end.p0(i64 4, ptr %8) #6
  call void @llvm.lifetime.end.p0(i64 8, ptr %7) #6
  call void @llvm.lifetime.end.p0(i64 8, ptr %6) #6
  %117 = load i32, ptr %3, align 4
  ret i32 %117
}