; Function Attrs: nounwind uwtable
define internal range(i32 -1, 2) i32 @_job_check_grace_internal(ptr noundef %0, ptr noundef %1) #0 {
  %3 = alloca i32, align 4
  %4 = getelementptr inbounds nuw i8, ptr %0, i64 696
  %5 = load i64, ptr %4, align 8
  %.not = icmp eq i64 %5, 0
  br i1 %.not, label %12, label %6

6:                                                ; preds = %2
  %7 = tail call i64 @time(ptr noundef null) #8
  %8 = getelementptr inbounds nuw i8, ptr %0, i64 232
  %9 = load i64, ptr %8, align 8
  %.not36 = icmp slt i64 %7, %9
  br i1 %.not36, label %52, label %10

10:                                               ; preds = %6
  %11 = tail call i64 @time(ptr noundef null) #8
  store i64 %11, ptr %4, align 8
  br label %52

12:                                               ; preds = %2
  %13 = tail call zeroext i1 @job_borrow_from_resv_check(ptr noundef nonnull %0, ptr noundef %1) #8
  br i1 %13, label %14, label %18

14:                                               ; preds = %12
  %15 = getelementptr inbounds nuw i8, ptr %0, i64 1118
  %16 = load i16, ptr %15, align 2
  %17 = zext i16 %16 to i32
  br label %25

18:                                               ; preds = %12
  call void @llvm.lifetime.start.p0(i64 4, ptr nonnull %3) #8
  store i32 0, ptr %3, align 4
  %19 = load i32, ptr @plugin_inited, align 4
  %20 = icmp eq i32 %19, 1
  br i1 %20, label %slurm_job_get_grace_time.exit, label %21

21:                                               ; preds = %18
  %22 = load ptr, ptr getelementptr inbounds nuw (i8, ptr @ops, i64 16), align 8
  %23 = call i32 %22(ptr noundef nonnull %0, i32 noundef 3, ptr noundef nonnull %3) #8
  %24 = load i32, ptr %3, align 4
  br label %slurm_job_get_grace_time.exit

slurm_job_get_grace_time.exit:                    ; preds = %18, %21
  %.0.i = phi i32 [ 0, %18 ], [ %24, %21 ]
  call void @llvm.lifetime.end.p0(i64 4, ptr nonnull %3) #8
  br label %25

25:                                               ; preds = %slurm_job_get_grace_time.exit, %14
  %.0 = phi i32 [ %17, %14 ], [ %.0.i, %slurm_job_get_grace_time.exit ]
  %26 = call i64 @time(ptr noundef null) #8
  store i64 %26, ptr %4, align 8
  %27 = getelementptr inbounds nuw i8, ptr %0, i64 232
  %28 = load i64, ptr %27, align 8
  %29 = zext i32 %.0 to i64
  %30 = add nsw i64 %26, %29
  %. = call i64 @llvm.smin.i64(i64 %28, i64 %30)
  store i64 %., ptr %27, align 8
  %.not33 = icmp eq i32 %.0, 0
  br i1 %.not33, label %52, label %31

31:                                               ; preds = %25
  %32 = call i32 @get_log_level() #8
  %33 = icmp sgt i32 %32, 4
  br i1 %33, label %34, label %35

34:                                               ; preds = %31
  call void (i32, ptr, ...) @log_var(i32 noundef 5, ptr noundef nonnull @.str.18, i32 noundef %.0, ptr noundef nonnull %0, ptr noundef %1) #8
  br label %35

35:                                               ; preds = %34, %31
  %36 = load i8, ptr @preempt_send_user_signal, align 1, !range !8, !noundef !9
  %37 = trunc nuw i8 %36 to i1
  br i1 %37, label %38, label %45

38:                                               ; preds = %35
  %39 = getelementptr inbounds nuw i8, ptr %0, i64 1116
  %40 = load i16, ptr %39, align 4
  %.not34 = icmp eq i16 %40, 0
  br i1 %.not34, label %45, label %41

41:                                               ; preds = %38
  %42 = getelementptr inbounds nuw i8, ptr %0, i64 1114
  %43 = load i16, ptr %42, align 2
  %.not35 = icmp sgt i16 %43, -1
  br i1 %.not35, label %44, label %45

44:                                               ; preds = %41
  call void @send_job_warn_signal(ptr noundef nonnull %0, i1 noundef zeroext true) #8
  br label %48

45:                                               ; preds = %41, %38, %35
  %46 = call i32 @job_signal(ptr noundef nonnull %0, i16 noundef zeroext 18, i16 noundef zeroext 0, i32 noundef 0, i1 noundef zeroext false) #8
  %47 = call i32 @job_signal(ptr noundef nonnull %0, i16 noundef zeroext 15, i16 noundef zeroext 0, i32 noundef 0, i1 noundef zeroext false) #8
  br label %48

48:                                               ; preds = %45, %44
  %49 = getelementptr inbounds nuw i8, ptr %0, i64 112
  %50 = load i64, ptr %49, align 8
  %51 = or i64 %50, 128
  store i64 %51, ptr %49, align 8
  br label %52

52:                                               ; preds = %48, %25, %6, %10
  %.030 = phi i32 [ 1, %10 ], [ -1, %6 ], [ -1, %48 ], [ 1, %25 ]
  ret i32 %.030
}